; Function Attrs: mustprogress uwtable
define void @_ZN7openvdb5v11_07MetaMap10insertMetaERKS1_(ptr noundef nonnull align 8 dereferenceable(56) %this, ptr noundef nonnull readonly align 8 dereferenceable(56) %other) local_unnamed_addr #3 align 2 {
entry:
  %_M_left.i.i.i = getelementptr inbounds i8, ptr %other, i64 32
  %0 = load ptr, ptr %_M_left.i.i.i, align 8
  %add.ptr.i.i.i = getelementptr inbounds i8, ptr %other, i64 16
  %cmp.i.not9 = icmp eq ptr %0, %add.ptr.i.i.i
  br i1 %cmp.i.not9, label %for.end, label %for.body

for.body:                                         ; preds = %entry, %for.inc
  %it.sroa.0.010 = phi ptr [ %call.i, %for.inc ], [ %0, %entry ]
  %second = getelementptr inbounds i8, ptr %it.sroa.0.010, i64 64
  %1 = load ptr, ptr %second, align 8
  %cmp.i2.not = icmp eq ptr %1, null
  br i1 %cmp.i2.not, label %for.inc, label %if.then

if.then:                                          ; preds = %for.body
  %_M_storage.i.i = getelementptr inbounds i8, ptr %it.sroa.0.010, i64 32
  tail call void @_ZN7openvdb5v11_07MetaMap10insertMetaERKNSt7__cxx1112basic_stringIcSt11char_traitsIcESaIcEEERKNS0_8MetadataE(ptr noundef nonnull align 8 dereferenceable(56) %this, ptr noundef nonnull align 8 dereferenceable(32) %_M_storage.i.i, ptr noundef nonnull align 8 dereferenceable(8) %1)
  br label %for.inc

for.inc:                                          ; preds = %for.body, %if.then
  %call.i = tail call noundef ptr @_ZSt18_Rb_tree_incrementPKSt18_Rb_tree_node_base(ptr noundef nonnull %it.sroa.0.010) #14
  %cmp.i.not = icmp eq ptr %call.i, %add.ptr.i.i.i
  br i1 %cmp.i.not, label %for.end, label %for.body, !llvm.loop !4

for.end:                                          ; preds = %for.inc, %entry
  ret void
}